; Function Attrs: nounwind uwtable
define void @jsimd_h2v2_downsample(ptr noundef readonly captures(none) %0, ptr noundef readonly captures(none) %1, ptr noundef %2, ptr noundef %3) local_unnamed_addr #0 {
  %5 = tail call align 4 ptr @llvm.threadlocal.address.p0(ptr align 4 @simd_support)
  %6 = load i32, ptr %5, align 4, !tbaa !3
  %7 = icmp eq i32 %6, -1
  br i1 %7, label %8, label %9

8:                                                ; preds = %4
  tail call fastcc void @init_simd()
  %.pre = load i32, ptr %5, align 4, !tbaa !3
  br label %9

9:                                                ; preds = %8, %4
  %10 = phi i32 [ %.pre, %8 ], [ %6, %4 ]
  %11 = and i32 %10, 128
  %.not = icmp eq i32 %11, 0
  %12 = getelementptr inbounds nuw i8, ptr %0, i64 48
  %13 = load i32, ptr %12, align 8, !tbaa !26
  %14 = getelementptr inbounds nuw i8, ptr %0, i64 316
  %15 = load i32, ptr %14, align 4, !tbaa !46
  %16 = getelementptr inbounds nuw i8, ptr %1, i64 12
  %17 = load i32, ptr %16, align 4, !tbaa !47
  %18 = getelementptr inbounds nuw i8, ptr %1, i64 28
  %19 = load i32, ptr %18, align 4, !tbaa !49
  br i1 %.not, label %21, label %20

20:                                               ; preds = %9
  tail call void @jsimd_h2v2_downsample_avx2(i32 noundef %13, i32 noundef %15, i32 noundef %17, i32 noundef %19, ptr noundef %2, ptr noundef %3) #8
  br label %22

21:                                               ; preds = %9
  tail call void @jsimd_h2v2_downsample_sse2(i32 noundef %13, i32 noundef %15, i32 noundef %17, i32 noundef %19, ptr noundef %2, ptr noundef %3) #8
  br label %22

22:                                               ; preds = %21, %20
  ret void
}